#include <math.h>
#include <stdio.h>
#include <stdlib.h>
#include <string.h>

int main()
{int n,m,v[100][100],z,d;
 scanf("%d %d",&m,&n);
 for(int i=0;i<=m-1;i++)
   {for(int j=0;j<=n-1;j++)
       {scanf("%d",&(v[i][j]));}
   }
  
   
int p=0,u=n;  
if(m>n){u=m;} 
for(int i=0;i<=u;i++)
  {   
      for(int d=i;d<=n-i-1;d++)
        {
        printf("%d\n",v[i][d]);
         p++;if(p==m*n){break;}
        } 
        if(p==m*n){break;}
      for(int a=i+1;a<=m-i-1;a++)
       {
         printf("%d\n",v[a][n-1-i]);
          p++;if(p==m*n){break;}
        }
      if(p==m*n){break;}
      for(int b=n-i-2;b>=i;b--)
        {
        printf("%d\n",v[m-i-1][b]);
        p++;if(p==m*n){break;}
        }
       if(p==m*n){break;}
     for(int c=m-i-2;c>=i+1;c--)
     {
        printf("%d\n",v[c][i]);
       p++;
       if(p==m*n){break;}
     }  
     if(p==m*n){break;}
  }  
return 0; 

}